target datalayout = "e-m:e-p270:32:32-p271:32:32-p272:64:64-i64:64-i128:128-f80:128-n8:16:32:64-S128"
target triple = "x86_64-pc-linux-gnu"

%struct.ident_t = type { i32, i32, i32, i32, ptr }
%"class.gmx::BasicVector" = type { [3 x float] }
%"struct.std::_Vector_base.179" = type { %"struct.std::_Vector_base<gmx::BasicVector<float>, std::allocator<gmx::BasicVector<float>>>::_Vector_impl" }
%"struct.std::_Vector_base<gmx::BasicVector<float>, std::allocator<gmx::BasicVector<float>>>::_Vector_impl" = type { %"struct.std::_Vector_base<gmx::BasicVector<float>, std::allocator<gmx::BasicVector<float>>>::_Vector_impl_data" }
%"struct.std::_Vector_base<gmx::BasicVector<float>, std::allocator<gmx::BasicVector<float>>>::_Vector_impl_data" = type { ptr, ptr, ptr }
%"class.gmx::ArrayRef.324" = type { %"struct.gmx::ArrayRefIter.325", %"struct.gmx::ArrayRefIter.325" }
%"struct.gmx::ArrayRefIter.325" = type { ptr }

@1 = private unnamed_addr constant %struct.ident_t { i32 0, i32 514, i32 0, i32 22, ptr @0 }, align 8

; Function Attrs: mustprogress nounwind uwtable
define linkonce_odr noundef nonnull align 4 dereferenceable(12) ptr @_ZNK3gmx12ArrayRefIterIKNS_11BasicVectorIfEEEdeEv(ptr noundef nonnull align 8 dereferenceable(8) %0) #3 comdat align 2 {
  %2 = alloca ptr, align 8
  store ptr %0, ptr %2, align 8
  %3 = load ptr, ptr %2, align 8
  %4 = getelementptr inbounds %"struct.gmx::ArrayRefIter.325", ptr %3, i32 0, i32 0
  %5 = load ptr, ptr %4, align 8
  ret ptr %5
}

; Function Attrs: mustprogress nounwind uwtable
define linkonce_odr noundef nonnull align 8 dereferenceable(8) ptr @_ZN3gmx12ArrayRefIterIKNS_11BasicVectorIfEEEpLEl(ptr noundef nonnull align 8 dereferenceable(8) %0, i64 noundef %1) #3 comdat align 2 {
  %3 = alloca ptr, align 8
  %4 = alloca i64, align 8
  store ptr %0, ptr %3, align 8
  store i64 %1, ptr %4, align 8
  %5 = load ptr, ptr %3, align 8
  %6 = load i64, ptr %4, align 8
  %7 = getelementptr inbounds %"struct.gmx::ArrayRefIter.325", ptr %5, i32 0, i32 0
  %8 = load ptr, ptr %7, align 8
  %9 = getelementptr inbounds %"class.gmx::BasicVector", ptr %8, i64 %6
  store ptr %9, ptr %7, align 8
  ret ptr %5
}

; Function Attrs: mustprogress nounwind uwtable
define linkonce_odr noundef nonnull align 8 dereferenceable(8) ptr @_ZNK3gmx5boost14stl_interfaces2v118iterator_interfaceINS_12ArrayRefIterIKNS_11BasicVectorIfEEEESt26random_access_iterator_tagS7_RS7_PS7_lvE7derivedEv(ptr noundef nonnull align 1 dereferenceable(1) %0) #3 comdat align 2 {
  %2 = alloca ptr, align 8
  store ptr %0, ptr %2, align 8
  %3 = load ptr, ptr %2, align 8
  ret ptr %3
}

; Function Attrs: mustprogress nounwind uwtable
define linkonce_odr noundef i64 @_ZNK3gmx12ArrayRefIterIKNS_11BasicVectorIfEEEmiES4_(ptr noundef nonnull align 8 dereferenceable(8) %0, ptr %1) #3 comdat align 2 {
  %3 = alloca %"struct.gmx::ArrayRefIter.325", align 8
  %4 = alloca ptr, align 8
  %5 = getelementptr inbounds %"struct.gmx::ArrayRefIter.325", ptr %3, i32 0, i32 0
  store ptr %1, ptr %5, align 8
  store ptr %0, ptr %4, align 8
  %6 = load ptr, ptr %4, align 8
  %7 = getelementptr inbounds %"struct.gmx::ArrayRefIter.325", ptr %6, i32 0, i32 0
  %8 = load ptr, ptr %7, align 8
  %9 = getelementptr inbounds %"struct.gmx::ArrayRefIter.325", ptr %3, i32 0, i32 0
  %10 = load ptr, ptr %9, align 8
  %11 = ptrtoint ptr %8 to i64
  %12 = ptrtoint ptr %10 to i64
  %13 = sub i64 %11, %12
  %14 = sdiv exact i64 %13, 12
  ret i64 %14
}

; Function Attrs: mustprogress nounwind uwtable
define linkonce_odr noundef nonnull align 4 dereferenceable(12) ptr @_ZNK3gmx5boost14stl_interfaces2v118iterator_interfaceINS_12ArrayRefIterIKNS_11BasicVectorIfEEEESt26random_access_iterator_tagS7_RS7_PS7_lvEixIS8_EEDTcmpLclsr3stdE7declvalIRT_EEfp_declsr3stdE7declvalISF_EEEl(ptr noundef nonnull align 1 dereferenceable(1) %0, i64 noundef %1) #3 comdat align 2 {
  %3 = alloca ptr, align 8
  %4 = alloca i64, align 8
  %5 = alloca %"struct.gmx::ArrayRefIter.325", align 8
  store ptr %0, ptr %3, align 8
  store i64 %1, ptr %4, align 8
  %6 = load ptr, ptr %3, align 8
  %7 = call noundef nonnull align 8 dereferenceable(8) ptr @_ZNK3gmx5boost14stl_interfaces2v118iterator_interfaceINS_12ArrayRefIterIKNS_11BasicVectorIfEEEESt26random_access_iterator_tagS7_RS7_PS7_lvE7derivedEv(ptr noundef nonnull align 1 dereferenceable(1) %6) #4
  call void @llvm.memcpy.p0.p0.i64(ptr align 8 %5, ptr align 8 %7, i64 8, i1 false)
  %8 = load i64, ptr %4, align 8
  %9 = call noundef nonnull align 8 dereferenceable(8) ptr @_ZN3gmx12ArrayRefIterIKNS_11BasicVectorIfEEEpLEl(ptr noundef nonnull align 8 dereferenceable(8) %5, i64 noundef %8) #4
  %10 = call noundef nonnull align 4 dereferenceable(12) ptr @_ZNK3gmx12ArrayRefIterIKNS_11BasicVectorIfEEEdeEv(ptr noundef nonnull align 8 dereferenceable(8) %5) #4
  ret ptr %10
}

; Function Attrs: mustprogress nounwind uwtable
define linkonce_odr noundef i64 @_ZNK3gmx8ArrayRefIKNS_11BasicVectorIfEEE4sizeEv(ptr noundef nonnull align 8 dereferenceable(16) %0) #3 comdat align 2 {
  %2 = alloca ptr, align 8
  %3 = alloca %"struct.gmx::ArrayRefIter.325", align 8
  store ptr %0, ptr %2, align 8
  %4 = load ptr, ptr %2, align 8
  %5 = getelementptr inbounds %"class.gmx::ArrayRef.324", ptr %4, i32 0, i32 1
  %6 = getelementptr inbounds %"class.gmx::ArrayRef.324", ptr %4, i32 0, i32 0
  call void @llvm.memcpy.p0.p0.i64(ptr align 8 %3, ptr align 8 %6, i64 8, i1 false)
  %7 = getelementptr inbounds %"struct.gmx::ArrayRefIter.325", ptr %3, i32 0, i32 0
  %8 = load ptr, ptr %7, align 8
  %9 = call noundef i64 @_ZNK3gmx12ArrayRefIterIKNS_11BasicVectorIfEEEmiES4_(ptr noundef nonnull align 8 dereferenceable(8) %5, ptr %8) #4
  ret i64 %9
}

; Function Attrs: noreturn nounwind uwtable
define linkonce_odr hidden void @__clang_call_terminate(ptr noundef %0) #7 comdat {
  %2 = call ptr @__cxa_begin_catch(ptr %0) #4
  call void @_ZSt9terminatev() #20
  unreachable
}

; Function Attrs: mustprogress nounwind uwtable
define linkonce_odr noundef nonnull align 4 dereferenceable(12) ptr @_ZNSt6vectorIN3gmx11BasicVectorIfEESaIS2_EEixEm(ptr noundef nonnull align 8 dereferenceable(24) %0, i64 noundef %1) #3 comdat align 2 {
  %3 = alloca ptr, align 8
  %4 = alloca i64, align 8
  store ptr %0, ptr %3, align 8
  store i64 %1, ptr %4, align 8
  %5 = load ptr, ptr %3, align 8
  %6 = getelementptr inbounds %"struct.std::_Vector_base.179", ptr %5, i32 0, i32 0
  %7 = getelementptr inbounds %"struct.std::_Vector_base<gmx::BasicVector<float>, std::allocator<gmx::BasicVector<float>>>::_Vector_impl_data", ptr %6, i32 0, i32 0
  %8 = load ptr, ptr %7, align 8
  %9 = load i64, ptr %4, align 8
  %10 = getelementptr inbounds %"class.gmx::BasicVector", ptr %8, i64 %9
  ret ptr %10
}

; Function Attrs: mustprogress nounwind uwtable
define linkonce_odr noundef nonnull align 4 dereferenceable(12) ptr @_ZNK3gmx8ArrayRefIKNS_11BasicVectorIfEEEixEm(ptr noundef nonnull align 8 dereferenceable(16) %0, i64 noundef %1) #3 comdat align 2 {
  %3 = alloca ptr, align 8
  %4 = alloca i64, align 8
  store ptr %0, ptr %3, align 8
  store i64 %1, ptr %4, align 8
  %5 = load ptr, ptr %3, align 8
  %6 = getelementptr inbounds %"class.gmx::ArrayRef.324", ptr %5, i32 0, i32 0
  %7 = load i64, ptr %4, align 8
  %8 = call noundef nonnull align 4 dereferenceable(12) ptr @_ZNK3gmx5boost14stl_interfaces2v118iterator_interfaceINS_12ArrayRefIterIKNS_11BasicVectorIfEEEESt26random_access_iterator_tagS7_RS7_PS7_lvEixIS8_EEDTcmpLclsr3stdE7declvalIRT_EEfp_declsr3stdE7declvalISF_EEEl(ptr noundef nonnull align 1 dereferenceable(1) %6, i64 noundef %7) #4
  ret ptr %8
}

; Function Attrs: mustprogress nounwind uwtable
define linkonce_odr noundef i64 @_ZN3gmx5ssizeINS_8ArrayRefIKNS_11BasicVectorIfEEEEEElRKT_(ptr noundef nonnull align 8 dereferenceable(16) %0) #3 comdat {
  %2 = alloca ptr, align 8
  store ptr %0, ptr %2, align 8
  %3 = load ptr, ptr %2, align 8
  %4 = call noundef i64 @_ZNK3gmx8ArrayRefIKNS_11BasicVectorIfEEE4sizeEv(ptr noundef nonnull align 8 dereferenceable(16) %3)
  ret i64 %4
}

; Function Attrs: norecurse nounwind uwtable
define internal void @_ZN12_GLOBAL__N_114setCoordinatesEPSt6vectorIN3gmx11BasicVectorIfEESaIS3_EENS1_8ArrayRefIKS3_EE.omp_outlined(ptr noalias noundef %0, ptr noalias noundef %1, ptr noundef nonnull align 8 dereferenceable(16) %2, ptr noundef nonnull align 8 dereferenceable(8) %3) #18 personality ptr @__gxx_personality_v0 {
  %5 = alloca ptr, align 8
  %6 = alloca ptr, align 8
  %7 = alloca ptr, align 8
  %8 = alloca ptr, align 8
  %9 = alloca i32, align 4
  %10 = alloca i64, align 8
  %11 = alloca i32, align 4
  %12 = alloca i32, align 4
  %13 = alloca i32, align 4
  %14 = alloca i32, align 4
  %15 = alloca i32, align 4
  %16 = alloca i32, align 4
  %17 = alloca i32, align 4
  store ptr %0, ptr %5, align 8
  store ptr %1, ptr %6, align 8
  store ptr %2, ptr %7, align 8
  store ptr %3, ptr %8, align 8
  %18 = load ptr, ptr %7, align 8
  %19 = load ptr, ptr %8, align 8
  %20 = call noundef i64 @_ZN3gmx5ssizeINS_8ArrayRefIKNS_11BasicVectorIfEEEEEElRKT_(ptr noundef nonnull align 8 dereferenceable(16) %18)
  store i64 %20, ptr %10, align 8
  %21 = load i64, ptr %10, align 8
  %22 = sub nsw i64 %21, 0
  %23 = sdiv i64 %22, 1
  %24 = trunc i64 %23 to i32
  %25 = sub nsw i32 %24, 1
  store i32 %25, ptr %11, align 4
  store i32 0, ptr %12, align 4
  %26 = load i64, ptr %10, align 8
  %27 = icmp slt i64 0, %26
  br i1 %27, label %28, label %66

28:                                               ; preds = %4
  store i32 0, ptr %13, align 4
  %29 = load i32, ptr %11, align 4
  store i32 %29, ptr %14, align 4
  store i32 1, ptr %15, align 4
  store i32 0, ptr %16, align 4
  %30 = load ptr, ptr %5, align 8
  %31 = load i32, ptr %30, align 4
  call void @__kmpc_for_static_init_4(ptr @1, i32 %31, i32 34, ptr %16, ptr %13, ptr %14, ptr %15, i32 1, i32 1)
  %32 = load i32, ptr %14, align 4
  %33 = load i32, ptr %11, align 4
  %34 = icmp sgt i32 %32, %33
  br i1 %34, label %35, label %37

35:                                               ; preds = %28
  %36 = load i32, ptr %11, align 4
  br label %39

37:                                               ; preds = %28
  %38 = load i32, ptr %14, align 4
  br label %39

39:                                               ; preds = %37, %35
  %40 = phi i32 [ %36, %35 ], [ %38, %37 ]
  store i32 %40, ptr %14, align 4
  %41 = load i32, ptr %13, align 4
  store i32 %41, ptr %9, align 4
  br label %42

42:                                               ; preds = %59, %39
  %43 = load i32, ptr %9, align 4
  %44 = load i32, ptr %14, align 4
  %45 = icmp sle i32 %43, %44
  br i1 %45, label %46, label %62

46:                                               ; preds = %42
  %47 = load i32, ptr %9, align 4
  %48 = mul nsw i32 %47, 1
  %49 = add nsw i32 0, %48
  store i32 %49, ptr %17, align 4
  %50 = load i32, ptr %17, align 4
  %51 = sext i32 %50 to i64
  %52 = invoke noundef nonnull align 4 dereferenceable(12) ptr @_ZNK3gmx8ArrayRefIKNS_11BasicVectorIfEEEixEm(ptr noundef nonnull align 8 dereferenceable(16) %18, i64 noundef %51)
          to label %53 unwind label %67

53:                                               ; preds = %46
  %54 = load ptr, ptr %19, align 8
  %55 = load i32, ptr %17, align 4
  %56 = sext i32 %55 to i64
  %57 = call noundef nonnull align 4 dereferenceable(12) ptr @_ZNSt6vectorIN3gmx11BasicVectorIfEESaIS2_EEixEm(ptr noundef nonnull align 8 dereferenceable(24) %54, i64 noundef %56) #4
  call void @llvm.memcpy.p0.p0.i64(ptr align 4 %57, ptr align 4 %52, i64 12, i1 false)
  br label %58

58:                                               ; preds = %53
  br label %59

59:                                               ; preds = %58
  %60 = load i32, ptr %9, align 4
  %61 = add nsw i32 %60, 1
  store i32 %61, ptr %9, align 4
  br label %42

62:                                               ; preds = %42
  br label %63

63:                                               ; preds = %62
  %64 = load ptr, ptr %5, align 8
  %65 = load i32, ptr %64, align 4
  call void @__kmpc_for_static_fini(ptr @1, i32 %65)
  br label %66

66:                                               ; preds = %63, %4
  ret void

67:                                               ; preds = %46
  %68 = landingpad { ptr, i32 }
          catch ptr null
  %69 = extractvalue { ptr, i32 } %68, 0
  call void @__clang_call_terminate(ptr %69) #20
  unreachable
}