; Function Attrs: norecurse nounwind uwtable
define internal void @_ZN12_GLOBAL__N_114setCoordinatesEPSt6vectorIN3gmx11BasicVectorIfEESaIS3_EENS1_8ArrayRefIKS3_EE.omp_outlined(ptr noalias nocapture noundef readonly %0, ptr noalias nocapture readnone %1, ptr nocapture noundef nonnull readonly align 8 dereferenceable(16) %2, ptr nocapture noundef nonnull readonly align 8 dereferenceable(8) %3) #20 personality ptr @__gxx_personality_v0 {
  %5 = alloca i32, align 4
  %6 = alloca i32, align 4
  %7 = alloca i32, align 4
  %8 = alloca i32, align 4
  %9 = getelementptr inbounds i8, ptr %2, i64 8
  %.sroa.0.0.copyload.i.i = load ptr, ptr %2, align 8
  %10 = load ptr, ptr %9, align 8
  %11 = ptrtoint ptr %10 to i64
  %12 = ptrtoint ptr %.sroa.0.0.copyload.i.i to i64
  %13 = sub i64 %11, %12
  %14 = icmp sgt i64 %13, 0
  br i1 %14, label %15, label %31

15:                                               ; preds = %4
  %16 = udiv exact i64 %13, 12
  %17 = trunc i64 %16 to i32
  %18 = add nsw i32 %17, -1
  store i32 0, ptr %5, align 4
  store i32 %18, ptr %6, align 4
  store i32 1, ptr %7, align 4
  store i32 0, ptr %8, align 4
  %19 = load i32, ptr %0, align 4
  call void @__kmpc_for_static_init_4(ptr nonnull @1, i32 %19, i32 34, ptr nonnull %8, ptr nonnull %5, ptr nonnull %6, ptr nonnull %7, i32 1, i32 1)
  %20 = load i32, ptr %6, align 4
  %21 = call i32 @llvm.smin.i32(i32 %20, i32 %18)
  store i32 %21, ptr %6, align 4
  %22 = load i32, ptr %5, align 4
  %.not13 = icmp sgt i32 %22, %21
  br i1 %.not13, label %._crit_edge, label %.lr.ph.preheader

.lr.ph.preheader:                                 ; preds = %15
  %23 = sext i32 %22 to i64
  %24 = add nsw i32 %21, 1
  br label %.lr.ph

.lr.ph:                                           ; preds = %.lr.ph.preheader, %.lr.ph
  %indvars.iv = phi i64 [ %23, %.lr.ph.preheader ], [ %indvars.iv.next, %.lr.ph ]
  %25 = load i64, ptr %2, align 8
  %26 = inttoptr i64 %25 to ptr
  %27 = getelementptr inbounds %"class.gmx::BasicVector", ptr %26, i64 %indvars.iv
  %28 = load ptr, ptr %3, align 8
  %29 = load ptr, ptr %28, align 8
  %30 = getelementptr inbounds %"class.gmx::BasicVector", ptr %29, i64 %indvars.iv
  call void @llvm.memcpy.p0.p0.i64(ptr noundef nonnull align 4 dereferenceable(12) %30, ptr noundef nonnull align 4 dereferenceable(12) %27, i64 12, i1 false)
  %indvars.iv.next = add nsw i64 %indvars.iv, 1
  %lftr.wideiv = trunc i64 %indvars.iv.next to i32
  %exitcond.not = icmp eq i32 %24, %lftr.wideiv
  br i1 %exitcond.not, label %._crit_edge, label %.lr.ph

._crit_edge:                                      ; preds = %.lr.ph, %15
  call void @__kmpc_for_static_fini(ptr nonnull @1, i32 %19)
  br label %31

31:                                               ; preds = %._crit_edge, %4
  ret void
}